; Function Attrs: mustprogress nounwind uwtable
define hidden void @_ZN6hermes2vm7HadesGC7collectENSt7__cxx1112basic_stringIcSt11char_traitsIcESaIcEEEb(ptr noundef nonnull align 8 dereferenceable(8152) %this, ptr noundef %cause, i1 zeroext %0) unnamed_addr #4 align 2 {
entry:
  %agg.tmp = alloca %"class.std::__cxx11::basic_string", align 8
  %agg.tmp2 = alloca %"class.std::__cxx11::basic_string", align 8
  %agg.tmp5 = alloca %"class.std::__cxx11::basic_string", align 8
  %agg.tmp6 = alloca %"class.std::__cxx11::basic_string", align 8
  %gcMutex_ = getelementptr inbounds i8, ptr %this, i64 7544
  %call1.i.i.i.i = tail call noundef i32 @pthread_mutex_lock(ptr noundef nonnull %gcMutex_) #34
  %tobool.not.i.i = icmp eq i32 %call1.i.i.i.i, 0
  br i1 %tobool.not.i.i, label %_ZNSt10lock_guardISt15recursive_mutexEC2ERS0_.exit, label %if.then.i.i

if.then.i.i:                                      ; preds = %entry
  tail call void @_ZSt20__throw_system_errori(i32 noundef %call1.i.i.i.i) #36
  unreachable

_ZNSt10lock_guardISt15recursive_mutexEC2ERS0_.exit: ; preds = %entry
  %promoteYGToOG_ = getelementptr inbounds i8, ptr %this, i64 7696
  store i8 0, ptr %promoteYGToOG_, align 8
  call void @_ZNSt7__cxx1112basic_stringIcSt11char_traitsIcESaIcEEC1ERKS4_(ptr noundef nonnull align 8 dereferenceable(32) %agg.tmp, ptr noundef nonnull align 8 dereferenceable(32) %cause) #34
  call void @_ZN6hermes2vm7HadesGC25waitForCollectionToFinishENSt7__cxx1112basic_stringIcSt11char_traitsIcESaIcEEE(ptr noundef nonnull align 8 dereferenceable(8152) %this, ptr noundef nonnull %agg.tmp)
  call void @_ZNSt7__cxx1112basic_stringIcSt11char_traitsIcESaIcEED1Ev(ptr noundef nonnull align 8 dereferenceable(32) %agg.tmp) #34
  %call1.i.i.i.i1 = call noundef i32 @pthread_mutex_unlock(ptr noundef nonnull %gcMutex_) #34
  call void @_ZNSt7__cxx1112basic_stringIcSt11char_traitsIcESaIcEEC1ERKS4_(ptr noundef nonnull align 8 dereferenceable(32) %agg.tmp2, ptr noundef nonnull align 8 dereferenceable(32) %cause) #34
  call void @_ZN6hermes2vm7HadesGC18youngGenCollectionENSt7__cxx1112basic_stringIcSt11char_traitsIcESaIcEEEb(ptr noundef nonnull align 8 dereferenceable(8152) %this, ptr noundef nonnull %agg.tmp2, i1 noundef zeroext true)
  call void @_ZNSt7__cxx1112basic_stringIcSt11char_traitsIcESaIcEED1Ev(ptr noundef nonnull align 8 dereferenceable(32) %agg.tmp2) #34
  %call1.i.i.i.i2 = call noundef i32 @pthread_mutex_lock(ptr noundef nonnull %gcMutex_) #34
  %tobool.not.i.i3 = icmp eq i32 %call1.i.i.i.i2, 0
  br i1 %tobool.not.i.i3, label %_ZNSt10lock_guardISt15recursive_mutexEC2ERS0_.exit5, label %if.then.i.i4

if.then.i.i4:                                     ; preds = %_ZNSt10lock_guardISt15recursive_mutexEC2ERS0_.exit
  call void @_ZSt20__throw_system_errori(i32 noundef %call1.i.i.i.i2) #36
  unreachable

_ZNSt10lock_guardISt15recursive_mutexEC2ERS0_.exit5: ; preds = %_ZNSt10lock_guardISt15recursive_mutexEC2ERS0_.exit
  call void @_ZNSt7__cxx1112basic_stringIcSt11char_traitsIcESaIcEEC1ERKS4_(ptr noundef nonnull align 8 dereferenceable(32) %agg.tmp5, ptr noundef nonnull align 8 dereferenceable(32) %cause) #34
  call void @_ZN6hermes2vm7HadesGC25waitForCollectionToFinishENSt7__cxx1112basic_stringIcSt11char_traitsIcESaIcEEE(ptr noundef nonnull align 8 dereferenceable(8152) %this, ptr noundef nonnull %agg.tmp5)
  call void @_ZNSt7__cxx1112basic_stringIcSt11char_traitsIcESaIcEED1Ev(ptr noundef nonnull align 8 dereferenceable(32) %agg.tmp5) #34
  %call1.i.i.i.i6 = call noundef i32 @pthread_mutex_unlock(ptr noundef nonnull %gcMutex_) #34
  call void @_ZNSt7__cxx1112basic_stringIcSt11char_traitsIcESaIcEEC1EOS4_(ptr noundef nonnull align 8 dereferenceable(32) %agg.tmp6, ptr noundef nonnull align 8 dereferenceable(32) %cause) #34
  call void @_ZN6hermes2vm7HadesGC18youngGenCollectionENSt7__cxx1112basic_stringIcSt11char_traitsIcESaIcEEEb(ptr noundef nonnull align 8 dereferenceable(8152) %this, ptr noundef nonnull %agg.tmp6, i1 noundef zeroext false)
  call void @_ZNSt7__cxx1112basic_stringIcSt11char_traitsIcESaIcEED1Ev(ptr noundef nonnull align 8 dereferenceable(32) %agg.tmp6) #34
  ret void
}